target datalayout = "e-m:e-p270:32:32-p271:32:32-p272:64:64-i64:64-i128:128-f80:128-n8:16:32:64-S128"
target triple = "x86_64-pc-linux-gnu"

%struct.AVFilterContext = type { ptr, ptr, ptr, ptr, ptr, i32, ptr, ptr, i32, ptr, ptr, i32, i32, ptr, ptr, ptr, ptr, i32, ptr, i32, i32 }
%struct.LUT2Context = type { ptr, %struct.FFFrameSync, i32, [4 x ptr], [4 x ptr], [6 x double], [4 x ptr], [4 x i32], [4 x i32], [4 x i32], [4 x i32], [4 x i32], [4 x i32], i32, i32, i32, i32, i32, i32, i32, ptr, ptr }
%struct.FFFrameSync = type { ptr, ptr, i32, %struct.AVRational, i64, ptr, ptr, i32, i32, i8, i8, ptr, i32, i32, i32, i32 }
%struct.AVRational = type { i32, i32 }
%struct.AVFilterFormatsConfig = type { ptr, ptr, ptr, ptr, ptr }
%struct.AVFilterLink = type { ptr, ptr, ptr, ptr, i32, i32, i32, i32, %struct.AVRational, i32, i32, i32, %struct.AVChannelLayout, %struct.AVRational, ptr, i32, %struct.AVFilterFormatsConfig, %struct.AVFilterFormatsConfig }
%struct.AVChannelLayout = type { i32, i32, %union.anon.1, ptr }
%union.anon.1 = type { i64 }
%struct.ThreadData = type { ptr, ptr, ptr }
%struct.AVFrame = type { [8 x ptr], [8 x i32], ptr, i32, i32, i32, i32, i32, %struct.AVRational, i64, i64, %struct.AVRational, i32, ptr, i32, i32, [8 x ptr], ptr, i32, ptr, i32, i32, i32, i32, i32, i32, i32, i64, ptr, i32, ptr, ptr, i64, i64, i64, i64, ptr, %struct.AVChannelLayout, i64 }

; Function Attrs: nounwind uwtable
define internal i32 @process_frame(ptr noundef %0) #0 {
  %2 = alloca i32, align 4
  %3 = alloca ptr, align 8
  %4 = alloca ptr, align 8
  %5 = alloca ptr, align 8
  %6 = alloca ptr, align 8
  %7 = alloca ptr, align 8
  %8 = alloca ptr, align 8
  %9 = alloca ptr, align 8
  %10 = alloca i32, align 4
  %11 = alloca i32, align 4
  %12 = alloca %struct.ThreadData, align 8
  store ptr %0, ptr %3, align 8, !tbaa !90
  call void @llvm.lifetime.start.p0(i64 8, ptr %4) #12
  %13 = load ptr, ptr %3, align 8, !tbaa !90
  %14 = getelementptr inbounds nuw %struct.FFFrameSync, ptr %13, i32 0, i32 1
  %15 = load ptr, ptr %14, align 8, !tbaa !92
  store ptr %15, ptr %4, align 8, !tbaa !4
  call void @llvm.lifetime.start.p0(i64 8, ptr %5) #12
  %16 = load ptr, ptr %3, align 8, !tbaa !90
  %17 = getelementptr inbounds nuw %struct.FFFrameSync, ptr %16, i32 0, i32 6
  %18 = load ptr, ptr %17, align 8, !tbaa !93
  store ptr %18, ptr %5, align 8, !tbaa !22
  call void @llvm.lifetime.start.p0(i64 8, ptr %6) #12
  %19 = load ptr, ptr %4, align 8, !tbaa !4
  %20 = getelementptr inbounds nuw %struct.AVFilterContext, ptr %19, i32 0, i32 7
  %21 = load ptr, ptr %20, align 8, !tbaa !43
  %22 = getelementptr inbounds ptr, ptr %21, i64 0
  %23 = load ptr, ptr %22, align 8, !tbaa !44
  store ptr %23, ptr %6, align 8, !tbaa !44
  call void @llvm.lifetime.start.p0(i64 8, ptr %7) #12
  call void @llvm.lifetime.start.p0(i64 8, ptr %8) #12
  store ptr null, ptr %8, align 8, !tbaa !94
  call void @llvm.lifetime.start.p0(i64 8, ptr %9) #12
  store ptr null, ptr %9, align 8, !tbaa !94
  call void @llvm.lifetime.start.p0(i64 4, ptr %10) #12
  %24 = load ptr, ptr %5, align 8, !tbaa !22
  %25 = getelementptr inbounds nuw %struct.LUT2Context, ptr %24, i32 0, i32 1
  %26 = call i32 @ff_framesync_get_frame(ptr noundef %25, i32 noundef 0, ptr noundef %8, i32 noundef 0)
  store i32 %26, ptr %10, align 4, !tbaa !24
  %27 = icmp slt i32 %26, 0
  br i1 %27, label %33, label %28

28:                                               ; preds = %1
  %29 = load ptr, ptr %5, align 8, !tbaa !22
  %30 = getelementptr inbounds nuw %struct.LUT2Context, ptr %29, i32 0, i32 1
  %31 = call i32 @ff_framesync_get_frame(ptr noundef %30, i32 noundef 1, ptr noundef %9, i32 noundef 0)
  store i32 %31, ptr %10, align 4, !tbaa !24
  %32 = icmp slt i32 %31, 0
  br i1 %32, label %33, label %35

33:                                               ; preds = %28, %1
  %34 = load i32, ptr %10, align 4, !tbaa !24
  store i32 %34, ptr %2, align 4
  store i32 1, ptr %11, align 4
  br label %115

35:                                               ; preds = %28
  %36 = load ptr, ptr %4, align 8, !tbaa !4
  %37 = getelementptr inbounds nuw %struct.AVFilterContext, ptr %36, i32 0, i32 17
  %38 = load i32, ptr %37, align 8, !tbaa !95
  %39 = icmp ne i32 %38, 0
  br i1 %39, label %43, label %40

40:                                               ; preds = %35
  %41 = load ptr, ptr %9, align 8, !tbaa !94
  %42 = icmp ne ptr %41, null
  br i1 %42, label %50, label %43

43:                                               ; preds = %40, %35
  %44 = load ptr, ptr %8, align 8, !tbaa !94
  %45 = call ptr @av_frame_clone(ptr noundef %44)
  store ptr %45, ptr %7, align 8, !tbaa !94
  %46 = load ptr, ptr %7, align 8, !tbaa !94
  %47 = icmp ne ptr %46, null
  br i1 %47, label %49, label %48

48:                                               ; preds = %43
  store i32 -12, ptr %2, align 4
  store i32 1, ptr %11, align 4
  br label %115

49:                                               ; preds = %43
  br label %97

50:                                               ; preds = %40
  call void @llvm.lifetime.start.p0(i64 24, ptr %12) #12
  %51 = load ptr, ptr %6, align 8, !tbaa !44
  %52 = load ptr, ptr %6, align 8, !tbaa !44
  %53 = getelementptr inbounds nuw %struct.AVFilterLink, ptr %52, i32 0, i32 6
  %54 = load i32, ptr %53, align 8, !tbaa !64
  %55 = load ptr, ptr %6, align 8, !tbaa !44
  %56 = getelementptr inbounds nuw %struct.AVFilterLink, ptr %55, i32 0, i32 7
  %57 = load i32, ptr %56, align 4, !tbaa !63
  %58 = call ptr @ff_get_video_buffer(ptr noundef %51, i32 noundef %54, i32 noundef %57)
  store ptr %58, ptr %7, align 8, !tbaa !94
  %59 = load ptr, ptr %7, align 8, !tbaa !94
  %60 = icmp ne ptr %59, null
  br i1 %60, label %62, label %61

61:                                               ; preds = %50
  store i32 -12, ptr %2, align 4
  store i32 1, ptr %11, align 4
  br label %94

62:                                               ; preds = %50
  %63 = load ptr, ptr %7, align 8, !tbaa !94
  %64 = load ptr, ptr %8, align 8, !tbaa !94
  %65 = call i32 @av_frame_copy_props(ptr noundef %63, ptr noundef %64)
  %66 = load ptr, ptr %7, align 8, !tbaa !94
  %67 = getelementptr inbounds nuw %struct.ThreadData, ptr %12, i32 0, i32 0
  store ptr %66, ptr %67, align 8, !tbaa !96
  %68 = load ptr, ptr %8, align 8, !tbaa !94
  %69 = getelementptr inbounds nuw %struct.ThreadData, ptr %12, i32 0, i32 1
  store ptr %68, ptr %69, align 8, !tbaa !98
  %70 = load ptr, ptr %9, align 8, !tbaa !94
  %71 = getelementptr inbounds nuw %struct.ThreadData, ptr %12, i32 0, i32 2
  store ptr %70, ptr %71, align 8, !tbaa !99
  %72 = load ptr, ptr %4, align 8, !tbaa !4
  %73 = load ptr, ptr %5, align 8, !tbaa !22
  %74 = getelementptr inbounds nuw %struct.LUT2Context, ptr %73, i32 0, i32 21
  %75 = load ptr, ptr %74, align 8, !tbaa !100
  %76 = load ptr, ptr %5, align 8, !tbaa !22
  %77 = getelementptr inbounds nuw %struct.LUT2Context, ptr %76, i32 0, i32 10
  %78 = getelementptr inbounds [4 x i32], ptr %77, i64 0, i64 1
  %79 = load i32, ptr %78, align 4, !tbaa !24
  %80 = load ptr, ptr %4, align 8, !tbaa !4
  %81 = call i32 @ff_filter_get_nb_threads(ptr noundef %80) #14
  %82 = icmp sgt i32 %79, %81
  br i1 %82, label %83, label %86

83:                                               ; preds = %62
  %84 = load ptr, ptr %4, align 8, !tbaa !4
  %85 = call i32 @ff_filter_get_nb_threads(ptr noundef %84) #14
  br label %91

86:                                               ; preds = %62
  %87 = load ptr, ptr %5, align 8, !tbaa !22
  %88 = getelementptr inbounds nuw %struct.LUT2Context, ptr %87, i32 0, i32 10
  %89 = getelementptr inbounds [4 x i32], ptr %88, i64 0, i64 1
  %90 = load i32, ptr %89, align 4, !tbaa !24
  br label %91

91:                                               ; preds = %86, %83
  %92 = phi i32 [ %85, %83 ], [ %90, %86 ]
  %93 = call i32 @ff_filter_execute(ptr noundef %72, ptr noundef %75, ptr noundef %12, ptr noundef null, i32 noundef %92)
  store i32 0, ptr %11, align 4
  br label %94

94:                                               ; preds = %91, %61
  call void @llvm.lifetime.end.p0(i64 24, ptr %12) #12
  %95 = load i32, ptr %11, align 4
  switch i32 %95, label %115 [
    i32 0, label %96
  ]

96:                                               ; preds = %94
  br label %97

97:                                               ; preds = %96, %49
  %98 = load ptr, ptr %5, align 8, !tbaa !22
  %99 = getelementptr inbounds nuw %struct.LUT2Context, ptr %98, i32 0, i32 1
  %100 = getelementptr inbounds nuw %struct.FFFrameSync, ptr %99, i32 0, i32 4
  %101 = load i64, ptr %100, align 8, !tbaa !101
  %102 = load ptr, ptr %5, align 8, !tbaa !22
  %103 = getelementptr inbounds nuw %struct.LUT2Context, ptr %102, i32 0, i32 1
  %104 = getelementptr inbounds nuw %struct.FFFrameSync, ptr %103, i32 0, i32 3
  %105 = load ptr, ptr %6, align 8, !tbaa !44
  %106 = getelementptr inbounds nuw %struct.AVFilterLink, ptr %105, i32 0, i32 13
  %107 = load i64, ptr %104, align 4
  %108 = load i64, ptr %106, align 8
  %109 = call i64 @av_rescale_q(i64 noundef %101, i64 %107, i64 %108) #15
  %110 = load ptr, ptr %7, align 8, !tbaa !94
  %111 = getelementptr inbounds nuw %struct.AVFrame, ptr %110, i32 0, i32 9
  store i64 %109, ptr %111, align 8, !tbaa !102
  %112 = load ptr, ptr %6, align 8, !tbaa !44
  %113 = load ptr, ptr %7, align 8, !tbaa !94
  %114 = call i32 @ff_filter_frame(ptr noundef %112, ptr noundef %113)
  store i32 %114, ptr %2, align 4
  store i32 1, ptr %11, align 4
  br label %115

115:                                              ; preds = %97, %94, %48, %33
  call void @llvm.lifetime.end.p0(i64 4, ptr %10) #12
  call void @llvm.lifetime.end.p0(i64 8, ptr %9) #12
  call void @llvm.lifetime.end.p0(i64 8, ptr %8) #12
  call void @llvm.lifetime.end.p0(i64 8, ptr %7) #12
  call void @llvm.lifetime.end.p0(i64 8, ptr %6) #12
  call void @llvm.lifetime.end.p0(i64 8, ptr %5) #12
  call void @llvm.lifetime.end.p0(i64 8, ptr %4) #12
  %116 = load i32, ptr %2, align 4
  ret i32 %116
}