; Function Attrs: nounwind uwtable
define internal i32 @process_frame(ptr noundef readonly captures(none) %0) #0 {
  %2 = alloca ptr, align 8
  %3 = alloca ptr, align 8
  %4 = alloca %struct.ThreadData, align 8
  %5 = getelementptr inbounds nuw i8, ptr %0, i64 8
  %6 = load ptr, ptr %5, align 8, !tbaa !77
  %7 = getelementptr inbounds nuw i8, ptr %0, i64 48
  %8 = load ptr, ptr %7, align 8, !tbaa !78
  %9 = getelementptr inbounds nuw i8, ptr %6, i64 56
  %10 = load ptr, ptr %9, align 8, !tbaa !35
  %11 = load ptr, ptr %10, align 8, !tbaa !36
  call void @llvm.lifetime.start.p0(i64 8, ptr nonnull %2) #11
  store ptr null, ptr %2, align 8, !tbaa !79
  call void @llvm.lifetime.start.p0(i64 8, ptr nonnull %3) #11
  store ptr null, ptr %3, align 8, !tbaa !79
  %12 = getelementptr inbounds nuw i8, ptr %8, i64 8
  %13 = call i32 @ff_framesync_get_frame(ptr noundef nonnull %12, i32 noundef 0, ptr noundef nonnull %2, i32 noundef 0) #11
  %14 = icmp slt i32 %13, 0
  br i1 %14, label %56, label %15

15:                                               ; preds = %1
  %16 = call i32 @ff_framesync_get_frame(ptr noundef nonnull %12, i32 noundef 1, ptr noundef nonnull %3, i32 noundef 0) #11
  %17 = icmp slt i32 %16, 0
  br i1 %17, label %56, label %18

18:                                               ; preds = %15
  %19 = getelementptr inbounds nuw i8, ptr %6, i64 128
  %20 = load i32, ptr %19, align 8, !tbaa !80
  %21 = icmp eq i32 %20, 0
  %22 = load ptr, ptr %3, align 8
  %23 = icmp ne ptr %22, null
  %or.cond = select i1 %21, i1 %23, i1 false
  br i1 %or.cond, label %27, label %24

24:                                               ; preds = %18
  %25 = load ptr, ptr %2, align 8, !tbaa !79
  %26 = call ptr @av_frame_clone(ptr noundef %25) #11
  %.not = icmp eq ptr %26, null
  br i1 %.not, label %56, label %46

27:                                               ; preds = %18
  call void @llvm.lifetime.start.p0(i64 24, ptr nonnull %4) #11
  %28 = getelementptr inbounds nuw i8, ptr %11, i64 40
  %29 = load i32, ptr %28, align 8, !tbaa !55
  %30 = getelementptr inbounds nuw i8, ptr %11, i64 44
  %31 = load i32, ptr %30, align 4, !tbaa !53
  %32 = call ptr @ff_get_video_buffer(ptr noundef %11, i32 noundef %29, i32 noundef %31) #11
  %.not37.not = icmp eq ptr %32, null
  br i1 %.not37.not, label %.critedge, label %33

33:                                               ; preds = %27
  %34 = load ptr, ptr %2, align 8, !tbaa !79
  %35 = call i32 @av_frame_copy_props(ptr noundef nonnull %32, ptr noundef %34) #11
  store ptr %32, ptr %4, align 8, !tbaa !81
  %36 = load ptr, ptr %2, align 8, !tbaa !79
  %37 = getelementptr inbounds nuw i8, ptr %4, i64 8
  store ptr %36, ptr %37, align 8, !tbaa !83
  %38 = load ptr, ptr %3, align 8, !tbaa !79
  %39 = getelementptr inbounds nuw i8, ptr %4, i64 16
  store ptr %38, ptr %39, align 8, !tbaa !84
  %40 = getelementptr inbounds nuw i8, ptr %8, i64 392
  %41 = load ptr, ptr %40, align 8, !tbaa !85
  %42 = getelementptr inbounds nuw i8, ptr %8, i64 308
  %43 = load i32, ptr %42, align 4, !tbaa !54
  %44 = call i32 @ff_filter_get_nb_threads(ptr noundef nonnull %6) #13
  %. = call i32 @llvm.smin.i32(i32 %43, i32 %44)
  %45 = call i32 @ff_filter_execute(ptr noundef nonnull %6, ptr noundef %41, ptr noundef nonnull %4, ptr noundef null, i32 noundef %.) #11
  call void @llvm.lifetime.end.p0(i64 24, ptr nonnull %4) #11
  br label %46

46:                                               ; preds = %33, %24
  %.029 = phi ptr [ %32, %33 ], [ %26, %24 ]
  %47 = getelementptr inbounds nuw i8, ptr %8, i64 40
  %48 = load i64, ptr %47, align 8, !tbaa !86
  %49 = getelementptr inbounds nuw i8, ptr %8, i64 28
  %50 = getelementptr inbounds nuw i8, ptr %11, i64 96
  %51 = load i64, ptr %49, align 4
  %52 = load i64, ptr %50, align 8
  %53 = call i64 @av_rescale_q(i64 noundef %48, i64 %51, i64 %52) #14
  %54 = getelementptr inbounds nuw i8, ptr %.029, i64 136
  store i64 %53, ptr %54, align 8, !tbaa !87
  %55 = call i32 @ff_filter_frame(ptr noundef %11, ptr noundef nonnull %.029) #11
  br label %56

.critedge:                                        ; preds = %27
  call void @llvm.lifetime.end.p0(i64 24, ptr nonnull %4) #11
  br label %56

56:                                               ; preds = %.critedge, %24, %1, %15, %46
  %.030 = phi i32 [ %55, %46 ], [ %13, %1 ], [ %16, %15 ], [ -12, %24 ], [ -12, %.critedge ]
  call void @llvm.lifetime.end.p0(i64 8, ptr nonnull %3) #11
  call void @llvm.lifetime.end.p0(i64 8, ptr nonnull %2) #11
  ret i32 %.030
}